target datalayout = "e-m:e-p270:32:32-p271:32:32-p272:64:64-i64:64-i128:128-f80:128-n8:16:32:64-S128"
target triple = "x86_64-pc-linux-gnu"

%struct.StringInfoData = type { ptr, i32, i32, i32 }

; Function Attrs: nounwind uwtable
define dso_local ptr @TypeNameToString(ptr noundef %0) #0 {
  %2 = alloca ptr, align 8
  %3 = alloca %struct.StringInfoData, align 8
  store ptr %0, ptr %2, align 8
  call void @llvm.lifetime.start.p0(i64 24, ptr %3) #7
  call void @initStringInfo(ptr noundef %3)
  %4 = load ptr, ptr %2, align 8
  call void @appendTypeNameToBuffer(ptr noundef %4, ptr noundef %3)
  %5 = getelementptr inbounds nuw %struct.StringInfoData, ptr %3, i32 0, i32 0
  %6 = load ptr, ptr %5, align 8
  call void @llvm.lifetime.end.p0(i64 24, ptr %3) #7
  ret ptr %6
}