; Function Attrs: nounwind uwtable
define dso_local ptr @TypeNameToString(ptr noundef readonly captures(none) %0) local_unnamed_addr #0 {
  %2 = alloca %struct.StringInfoData, align 8
  call void @llvm.lifetime.start.p0(i64 24, ptr nonnull %2) #7
  call void @initStringInfo(ptr noundef nonnull %2) #7
  call fastcc void @appendTypeNameToBuffer(ptr noundef %0, ptr noundef %2)
  %3 = load ptr, ptr %2, align 8
  call void @llvm.lifetime.end.p0(i64 24, ptr nonnull %2) #7
  ret ptr %3
}